target datalayout = "e-m:e-p270:32:32-p271:32:32-p272:64:64-i64:64-i128:128-f80:128-n8:16:32:64-S128"
target triple = "x86_64-pc-linux-gnu"

%struct._lv_vector_draw_dsc_t = type { %struct._lv_vector_fill_dsc_t, %struct._lv_vector_stroke_dsc_t, %struct._lv_matrix_t, i32, %struct.lv_area_t }
%struct._lv_vector_fill_dsc_t = type { i32, %struct.lv_color32_t, i8, i32, %struct._lv_draw_image_dsc_t, %struct._lv_vector_gradient_t, %struct._lv_matrix_t }
%struct.lv_color32_t = type { i8, i8, i8, i8 }
%struct._lv_draw_image_dsc_t = type { %struct.lv_draw_dsc_base_t, ptr, %struct.lv_image_header_t, i32, i32, i32, i32, i32, %struct.lv_point_t, %struct.lv_color_t, i8, i8, i8, ptr, %struct.lv_area_t, i32, ptr }
%struct.lv_draw_dsc_base_t = type { ptr, i32, i32, i32, ptr, i64, ptr }
%struct.lv_image_header_t = type <{ i64, i32 }>
%struct.lv_point_t = type { i32, i32 }
%struct.lv_color_t = type { i8, i8, i8 }
%struct._lv_vector_gradient_t = type { i32, [2 x %struct.lv_gradient_stop_t], i16, float, float, float, float, float, float, float, i32 }
%struct.lv_gradient_stop_t = type { %struct.lv_color_t, i8, i8 }
%struct._lv_vector_stroke_dsc_t = type { i32, %struct.lv_color32_t, i8, float, %struct._lv_array_t, i32, i32, i16, %struct._lv_vector_gradient_t, %struct._lv_matrix_t }
%struct._lv_array_t = type { ptr, i32, i32, i32, i8 }
%struct._lv_matrix_t = type { [3 x [3 x float]] }
%struct.lv_area_t = type { i32, i32, i32, i32 }
%struct._lv_svg_render_obj = type { ptr, i32, ptr, %struct._lv_vector_draw_dsc_t, %struct._lv_matrix_t, ptr, ptr, ptr, ptr, ptr, ptr, ptr, ptr, ptr }
%struct.lv_svg_render_gradient_t = type { %struct._lv_svg_render_obj, %struct._lv_vector_gradient_t, i8 }
%struct.lv_svg_attr_t = type { i8, i8, i8, %union.lv_svg_attr_value_t }
%union.lv_svg_attr_value_t = type { ptr }

; Function Attrs: nounwind uwtable
define internal void @_set_gradient_attr(ptr noundef %0, ptr noundef %1, ptr noundef %2) #0 {
  %4 = alloca ptr, align 8
  %5 = alloca ptr, align 8
  %6 = alloca ptr, align 8
  %7 = alloca ptr, align 8
  store ptr %0, ptr %4, align 8, !tbaa !3
  store ptr %1, ptr %5, align 8, !tbaa !3
  store ptr %2, ptr %6, align 8, !tbaa !3
  call void @llvm.lifetime.start.p0(i64 8, ptr %7) #8
  %8 = load ptr, ptr %4, align 8, !tbaa !3
  store ptr %8, ptr %7, align 8, !tbaa !3
  %9 = load ptr, ptr %6, align 8, !tbaa !3
  %10 = getelementptr inbounds nuw %struct.lv_svg_attr_t, ptr %9, i32 0, i32 0
  %11 = load i8, ptr %10, align 8, !tbaa !154
  %12 = zext i8 %11 to i32
  switch i32 %12, label %69 [
    i32 17, label %13
    i32 18, label %20
    i32 19, label %27
    i32 20, label %34
    i32 21, label %41
    i32 22, label %48
    i32 23, label %55
    i32 42, label %62
  ]

13:                                               ; preds = %3
  %14 = load ptr, ptr %6, align 8, !tbaa !3
  %15 = getelementptr inbounds nuw %struct.lv_svg_attr_t, ptr %14, i32 0, i32 3
  %16 = load float, ptr %15, align 8, !tbaa !79
  %17 = load ptr, ptr %7, align 8, !tbaa !3
  %18 = getelementptr inbounds nuw %struct.lv_svg_render_gradient_t, ptr %17, i32 0, i32 1
  %19 = getelementptr inbounds nuw %struct._lv_vector_gradient_t, ptr %18, i32 0, i32 7
  store float %16, ptr %19, align 8, !tbaa !240
  br label %69

20:                                               ; preds = %3
  %21 = load ptr, ptr %6, align 8, !tbaa !3
  %22 = getelementptr inbounds nuw %struct.lv_svg_attr_t, ptr %21, i32 0, i32 3
  %23 = load float, ptr %22, align 8, !tbaa !79
  %24 = load ptr, ptr %7, align 8, !tbaa !3
  %25 = getelementptr inbounds nuw %struct.lv_svg_render_gradient_t, ptr %24, i32 0, i32 1
  %26 = getelementptr inbounds nuw %struct._lv_vector_gradient_t, ptr %25, i32 0, i32 8
  store float %23, ptr %26, align 4, !tbaa !241
  br label %69

27:                                               ; preds = %3
  %28 = load ptr, ptr %6, align 8, !tbaa !3
  %29 = getelementptr inbounds nuw %struct.lv_svg_attr_t, ptr %28, i32 0, i32 3
  %30 = load float, ptr %29, align 8, !tbaa !79
  %31 = load ptr, ptr %7, align 8, !tbaa !3
  %32 = getelementptr inbounds nuw %struct.lv_svg_render_gradient_t, ptr %31, i32 0, i32 1
  %33 = getelementptr inbounds nuw %struct._lv_vector_gradient_t, ptr %32, i32 0, i32 9
  store float %30, ptr %33, align 8, !tbaa !242
  br label %69

34:                                               ; preds = %3
  %35 = load ptr, ptr %6, align 8, !tbaa !3
  %36 = getelementptr inbounds nuw %struct.lv_svg_attr_t, ptr %35, i32 0, i32 3
  %37 = load float, ptr %36, align 8, !tbaa !79
  %38 = load ptr, ptr %7, align 8, !tbaa !3
  %39 = getelementptr inbounds nuw %struct.lv_svg_render_gradient_t, ptr %38, i32 0, i32 1
  %40 = getelementptr inbounds nuw %struct._lv_vector_gradient_t, ptr %39, i32 0, i32 3
  store float %37, ptr %40, align 8, !tbaa !243
  br label %69

41:                                               ; preds = %3
  %42 = load ptr, ptr %6, align 8, !tbaa !3
  %43 = getelementptr inbounds nuw %struct.lv_svg_attr_t, ptr %42, i32 0, i32 3
  %44 = load float, ptr %43, align 8, !tbaa !79
  %45 = load ptr, ptr %7, align 8, !tbaa !3
  %46 = getelementptr inbounds nuw %struct.lv_svg_render_gradient_t, ptr %45, i32 0, i32 1
  %47 = getelementptr inbounds nuw %struct._lv_vector_gradient_t, ptr %46, i32 0, i32 4
  store float %44, ptr %47, align 4, !tbaa !244
  br label %69

48:                                               ; preds = %3
  %49 = load ptr, ptr %6, align 8, !tbaa !3
  %50 = getelementptr inbounds nuw %struct.lv_svg_attr_t, ptr %49, i32 0, i32 3
  %51 = load float, ptr %50, align 8, !tbaa !79
  %52 = load ptr, ptr %7, align 8, !tbaa !3
  %53 = getelementptr inbounds nuw %struct.lv_svg_render_gradient_t, ptr %52, i32 0, i32 1
  %54 = getelementptr inbounds nuw %struct._lv_vector_gradient_t, ptr %53, i32 0, i32 5
  store float %51, ptr %54, align 8, !tbaa !245
  br label %69

55:                                               ; preds = %3
  %56 = load ptr, ptr %6, align 8, !tbaa !3
  %57 = getelementptr inbounds nuw %struct.lv_svg_attr_t, ptr %56, i32 0, i32 3
  %58 = load float, ptr %57, align 8, !tbaa !79
  %59 = load ptr, ptr %7, align 8, !tbaa !3
  %60 = getelementptr inbounds nuw %struct.lv_svg_render_gradient_t, ptr %59, i32 0, i32 1
  %61 = getelementptr inbounds nuw %struct._lv_vector_gradient_t, ptr %60, i32 0, i32 6
  store float %58, ptr %61, align 4, !tbaa !246
  br label %69

62:                                               ; preds = %3
  %63 = load ptr, ptr %6, align 8, !tbaa !3
  %64 = getelementptr inbounds nuw %struct.lv_svg_attr_t, ptr %63, i32 0, i32 3
  %65 = load i32, ptr %64, align 8, !tbaa !79
  %66 = trunc i32 %65 to i8
  %67 = load ptr, ptr %7, align 8, !tbaa !3
  %68 = getelementptr inbounds nuw %struct.lv_svg_render_gradient_t, ptr %67, i32 0, i32 2
  store i8 %66, ptr %68, align 8, !tbaa !239
  br label %69

69:                                               ; preds = %3, %62, %55, %48, %41, %34, %27, %20, %13
  call void @llvm.lifetime.end.p0(i64 8, ptr %7) #8
  ret void
}