; Function Attrs: mustprogress nofree norecurse nosync nounwind willreturn memory(argmem: readwrite) uwtable
define internal void @_set_gradient_attr(ptr nocapture noundef writeonly %0, ptr nocapture readnone %1, ptr nocapture noundef readonly %2) #5 {
  %4 = load i8, ptr %2, align 8, !tbaa !163
  switch i8 %4, label %38 [
    i8 17, label %5
    i8 18, label %9
    i8 19, label %13
    i8 20, label %17
    i8 21, label %21
    i8 22, label %25
    i8 23, label %29
    i8 42, label %33
  ]

5:                                                ; preds = %3
  %6 = getelementptr inbounds nuw i8, ptr %2, i64 8
  %7 = load float, ptr %6, align 8, !tbaa !165
  %8 = getelementptr inbounds nuw i8, ptr %0, i64 608
  store float %7, ptr %8, align 8, !tbaa !240
  br label %38

9:                                                ; preds = %3
  %10 = getelementptr inbounds nuw i8, ptr %2, i64 8
  %11 = load float, ptr %10, align 8, !tbaa !165
  %12 = getelementptr inbounds nuw i8, ptr %0, i64 612
  store float %11, ptr %12, align 4, !tbaa !241
  br label %38

13:                                               ; preds = %3
  %14 = getelementptr inbounds nuw i8, ptr %2, i64 8
  %15 = load float, ptr %14, align 8, !tbaa !165
  %16 = getelementptr inbounds nuw i8, ptr %0, i64 616
  store float %15, ptr %16, align 8, !tbaa !242
  br label %38

17:                                               ; preds = %3
  %18 = getelementptr inbounds nuw i8, ptr %2, i64 8
  %19 = load float, ptr %18, align 8, !tbaa !165
  %20 = getelementptr inbounds nuw i8, ptr %0, i64 592
  store float %19, ptr %20, align 8, !tbaa !243
  br label %38

21:                                               ; preds = %3
  %22 = getelementptr inbounds nuw i8, ptr %2, i64 8
  %23 = load float, ptr %22, align 8, !tbaa !165
  %24 = getelementptr inbounds nuw i8, ptr %0, i64 596
  store float %23, ptr %24, align 4, !tbaa !244
  br label %38

25:                                               ; preds = %3
  %26 = getelementptr inbounds nuw i8, ptr %2, i64 8
  %27 = load float, ptr %26, align 8, !tbaa !165
  %28 = getelementptr inbounds nuw i8, ptr %0, i64 600
  store float %27, ptr %28, align 8, !tbaa !245
  br label %38

29:                                               ; preds = %3
  %30 = getelementptr inbounds nuw i8, ptr %2, i64 8
  %31 = load float, ptr %30, align 8, !tbaa !165
  %32 = getelementptr inbounds nuw i8, ptr %0, i64 604
  store float %31, ptr %32, align 4, !tbaa !246
  br label %38

33:                                               ; preds = %3
  %34 = getelementptr inbounds nuw i8, ptr %2, i64 8
  %35 = load i32, ptr %34, align 8, !tbaa !165
  %36 = trunc i32 %35 to i8
  %37 = getelementptr inbounds nuw i8, ptr %0, i64 624
  store i8 %36, ptr %37, align 8, !tbaa !239
  br label %38

38:                                               ; preds = %33, %29, %25, %21, %17, %13, %9, %5, %3
  ret void
}